; Function Attrs: mustprogress uwtable
define void @grpc_slice_malloc_large(ptr dead_on_unwind noalias writable writeonly sret(%struct.grpc_slice) align 8 captures(none) initializes((0, 24)) %0, i64 noundef %1) local_unnamed_addr #3 {
  %3 = add i64 %1, 16
  %4 = tail call noalias noundef nonnull ptr @_Znam(i64 noundef %3) #28
  store i64 1, ptr %4, align 8, !tbaa !20
  %5 = getelementptr inbounds nuw i8, ptr %4, i64 8
  store ptr @"_ZZ23grpc_slice_malloc_largeEN3$_08__invokeEP19grpc_slice_refcount", ptr %5, align 8, !tbaa !23
  store ptr %4, ptr %0, align 8, !tbaa !3
  %6 = getelementptr inbounds nuw i8, ptr %4, i64 16
  %7 = getelementptr inbounds nuw i8, ptr %0, i64 8
  %8 = getelementptr inbounds nuw i8, ptr %0, i64 16
  store ptr %6, ptr %8, align 8, !tbaa !9
  store i64 %1, ptr %7, align 8, !tbaa !9
  ret void
}